; Function Attrs: nounwind uwtable
define internal i64 @pg_popcount_masked_choose(ptr noundef %0, i32 noundef %1, i8 noundef zeroext %2) #0 {
  %4 = tail call { i32, i32, i32, i32 } asm "  xchgq  %rbx,${1:q}\0A  cpuid\0A  xchgq  %rbx,${1:q}", "={ax},=r,={cx},={dx},0,~{dirflag},~{fpsr},~{flags}"(i32 0) #6, !srcloc !3
  %5 = extractvalue { i32, i32, i32, i32 } %4, 0
  %6 = icmp eq i32 %5, 0
  br i1 %6, label %.thread21.i, label %pg_popcount_available.exit.i

pg_popcount_available.exit.i:                     ; preds = %3
  %7 = tail call { i32, i32, i32, i32 } asm "  xchgq  %rbx,${1:q}\0A  cpuid\0A  xchgq  %rbx,${1:q}", "={ax},=r,={cx},={dx},0,~{dirflag},~{fpsr},~{flags}"(i32 1) #6, !srcloc !4
  %.fr.i = freeze { i32, i32, i32, i32 } %7
  %8 = extractvalue { i32, i32, i32, i32 } %.fr.i, 2
  %9 = and i32 %8, 8388608
  %.not.i = icmp eq i32 %9, 0
  br i1 %.not.i, label %10, label %.thread21.i

10:                                               ; preds = %pg_popcount_available.exit.i
  br label %.thread21.i

.thread21.i:                                      ; preds = %10, %pg_popcount_available.exit.i, %3
  %11 = phi ptr [ @pg_popcount_slow, %3 ], [ @pg_popcount_slow, %10 ], [ @pg_popcount_fast, %pg_popcount_available.exit.i ]
  %12 = phi ptr [ @pg_popcount32_slow, %3 ], [ @pg_popcount32_slow, %10 ], [ @pg_popcount32_fast, %pg_popcount_available.exit.i ]
  %13 = phi ptr [ @pg_popcount64_slow, %3 ], [ @pg_popcount64_slow, %10 ], [ @pg_popcount64_fast, %pg_popcount_available.exit.i ]
  %14 = phi ptr [ @pg_popcount_masked_slow, %3 ], [ @pg_popcount_masked_slow, %10 ], [ @pg_popcount_masked_fast, %pg_popcount_available.exit.i ]
  store ptr %12, ptr @pg_popcount32, align 8
  store ptr %13, ptr @pg_popcount64, align 8
  store ptr %11, ptr @pg_popcount_optimized, align 8
  store ptr %14, ptr @pg_popcount_masked_optimized, align 8
  %15 = tail call zeroext i1 @pg_popcount_avx512_available() #7
  br i1 %15, label %16, label %choose_popcount_functions.exit

16:                                               ; preds = %.thread21.i
  store ptr @pg_popcount_avx512, ptr @pg_popcount_optimized, align 8
  store ptr @pg_popcount_masked_avx512, ptr @pg_popcount_masked_optimized, align 8
  br label %choose_popcount_functions.exit

choose_popcount_functions.exit:                   ; preds = %.thread21.i, %16
  %17 = icmp slt i32 %1, 8
  br i1 %17, label %.preheader.i, label %27

.preheader.i:                                     ; preds = %choose_popcount_functions.exit
  %.not14.i = icmp eq i32 %1, 0
  br i1 %.not14.i, label %pg_popcount_masked.exit, label %.lr.ph.i

.lr.ph.i:                                         ; preds = %.preheader.i, %.lr.ph.i
  %.017.i = phi i64 [ %26, %.lr.ph.i ], [ 0, %.preheader.i ]
  %.01116.i = phi ptr [ %19, %.lr.ph.i ], [ %0, %.preheader.i ]
  %.01215.i = phi i32 [ %18, %.lr.ph.i ], [ %1, %.preheader.i ]
  %18 = add i32 %.01215.i, -1
  %19 = getelementptr inbounds nuw i8, ptr %.01116.i, i64 1
  %20 = load i8, ptr %.01116.i, align 1
  %21 = and i8 %20, %2
  %22 = zext i8 %21 to i64
  %23 = getelementptr inbounds nuw [256 x i8], ptr @pg_number_of_ones, i64 0, i64 %22
  %24 = load i8, ptr %23, align 1
  %25 = zext i8 %24 to i64
  %26 = add i64 %.017.i, %25
  %.not.i2 = icmp eq i32 %18, 0
  br i1 %.not.i2, label %pg_popcount_masked.exit, label %.lr.ph.i, !llvm.loop !5

27:                                               ; preds = %choose_popcount_functions.exit
  %28 = load ptr, ptr @pg_popcount_masked_optimized, align 8
  %29 = tail call i64 %28(ptr noundef %0, i32 noundef %1, i8 noundef zeroext %2) #7
  br label %pg_popcount_masked.exit

pg_popcount_masked.exit:                          ; preds = %.lr.ph.i, %.preheader.i, %27
  %.010.i = phi i64 [ %29, %27 ], [ 0, %.preheader.i ], [ %26, %.lr.ph.i ]
  ret i64 %.010.i
}